; Function Attrs: nofree nounwind uwtable
define internal fastcc void @PrintHeader(i32 noundef range(i32 -2147483648, 3) %0) unnamed_addr #5 {
  %puts = tail call i32 @puts(ptr nonnull dereferenceable(1) @str.10)
  %puts2 = tail call i32 @puts(ptr nonnull dereferenceable(1) @str.11)
  %2 = tail call i32 (ptr, ...) @printf(ptr noundef nonnull dereferenceable(1) @.str.35)
  %puts3 = tail call i32 @puts(ptr nonnull dereferenceable(1) @str.12)
  %3 = tail call i32 (ptr, ...) @printf(ptr noundef nonnull dereferenceable(1) @.str.37, i32 noundef 10, i32 noundef 10)
  %4 = tail call i32 (ptr, ...) @printf(ptr noundef nonnull dereferenceable(1) @.str.38, i32 noundef 100)
  %5 = tail call i32 (ptr, ...) @printf(ptr noundef nonnull dereferenceable(1) @.str.39, double noundef 0.000000e+00, double noundef 1.000000e-03)
  %puts4 = tail call i32 @puts(ptr nonnull dereferenceable(1) @str.13)
  %6 = icmp ult i32 %0, 3
  br i1 %6, label %switch.lookup, label %8

switch.lookup:                                    ; preds = %1
  %7 = zext nneg i32 %0 to i64
  %switch.gep = getelementptr inbounds nuw [3 x ptr], ptr @switch.table.PrintHeader, i64 0, i64 %7
  %switch.load = load ptr, ptr %switch.gep, align 8
  %puts5 = tail call i32 @puts(ptr nonnull dereferenceable(1) %switch.load)
  br label %8

8:                                                ; preds = %1, %switch.lookup
  ret void
}